target datalayout = "e-m:e-p270:32:32-p271:32:32-p272:64:64-i64:64-i128:128-f80:128-n8:16:32:64-S128"
target triple = "x86_64-pc-linux-gnu"

%struct.range_admin_tag = type { i32, i32 }
%struct.epl_wmem_iarray = type { ptr, ptr, ptr, i32, i8 }
%struct._GArray = type { ptr, i32 }

; Function Attrs: null_pointer_is_valid sspstrong uwtable
define internal void @epl_wmem_iarray_sort_and_compact(ptr noundef %0) #0 {
  %2 = alloca ptr, align 8
  %3 = alloca ptr, align 8
  %4 = alloca ptr, align 8
  %5 = alloca i32, align 4
  %6 = alloca i32, align 4
  %7 = alloca i32, align 4
  store ptr %0, ptr %2, align 8
  call void @llvm.lifetime.start.p0(i64 8, ptr %3) #13
  call void @llvm.lifetime.start.p0(i64 8, ptr %4) #13
  store ptr null, ptr %4, align 8
  call void @llvm.lifetime.start.p0(i64 4, ptr %5) #13
  call void @llvm.lifetime.start.p0(i64 4, ptr %6) #13
  %8 = load ptr, ptr %2, align 8
  %9 = getelementptr inbounds nuw %struct.epl_wmem_iarray, ptr %8, i32 0, i32 2
  %10 = load ptr, ptr %9, align 8
  %11 = getelementptr inbounds nuw %struct._GArray, ptr %10, i32 0, i32 1
  %12 = load i32, ptr %11, align 8
  store i32 %12, ptr %6, align 4
  %13 = load ptr, ptr %2, align 8
  %14 = getelementptr inbounds nuw %struct.epl_wmem_iarray, ptr %13, i32 0, i32 4
  %15 = load i8, ptr %14, align 4
  %16 = and i8 %15, 1
  %17 = icmp ne i8 %16, 0
  br i1 %17, label %18, label %19

18:                                               ; preds = %1
  store i32 1, ptr %7, align 4
  br label %87

19:                                               ; preds = %1
  %20 = load ptr, ptr %2, align 8
  %21 = getelementptr inbounds nuw %struct.epl_wmem_iarray, ptr %20, i32 0, i32 2
  %22 = load ptr, ptr %21, align 8
  call void @g_array_sort(ptr noundef %22, ptr noundef @epl_wmem_iarray_cmp)
  %23 = load ptr, ptr %2, align 8
  %24 = getelementptr inbounds nuw %struct.epl_wmem_iarray, ptr %23, i32 0, i32 2
  %25 = load ptr, ptr %24, align 8
  %26 = getelementptr inbounds nuw %struct._GArray, ptr %25, i32 0, i32 0
  %27 = load ptr, ptr %26, align 8
  store ptr %27, ptr %3, align 8
  store ptr %27, ptr %4, align 8
  store i32 1, ptr %5, align 4
  br label %28

28:                                               ; preds = %78, %19
  %29 = load i32, ptr %5, align 4
  %30 = load i32, ptr %6, align 4
  %31 = icmp ult i32 %29, %30
  br i1 %31, label %32, label %81

32:                                               ; preds = %28
  %33 = load ptr, ptr %3, align 8
  %34 = load ptr, ptr %2, align 8
  %35 = getelementptr inbounds nuw %struct.epl_wmem_iarray, ptr %34, i32 0, i32 2
  %36 = load ptr, ptr %35, align 8
  %37 = call i32 @g_array_get_element_size(ptr noundef %36)
  %38 = zext i32 %37 to i64
  %39 = getelementptr i8, ptr %33, i64 %38
  store ptr %39, ptr %3, align 8
  br label %40

40:                                               ; preds = %63, %32
  %41 = load i32, ptr %5, align 4
  %42 = load i32, ptr %6, align 4
  %43 = icmp ult i32 %41, %42
  br i1 %43, label %44, label %61

44:                                               ; preds = %40
  %45 = load ptr, ptr %3, align 8
  %46 = getelementptr inbounds nuw %struct.range_admin_tag, ptr %45, i32 0, i32 0
  %47 = load i32, ptr %46, align 4
  %48 = load ptr, ptr %4, align 8
  %49 = getelementptr inbounds nuw %struct.range_admin_tag, ptr %48, i32 0, i32 1
  %50 = load i32, ptr %49, align 4
  %51 = sub i32 %47, %50
  %52 = icmp ule i32 %51, 1
  br i1 %52, label %53, label %61

53:                                               ; preds = %44
  %54 = load ptr, ptr %2, align 8
  %55 = getelementptr inbounds nuw %struct.epl_wmem_iarray, ptr %54, i32 0, i32 0
  %56 = load ptr, ptr %55, align 8
  %57 = load ptr, ptr %3, align 8
  %58 = load ptr, ptr %4, align 8
  %59 = call i32 %56(ptr noundef %57, ptr noundef %58)
  %60 = icmp ne i32 %59, 0
  br label %61

61:                                               ; preds = %53, %44, %40
  %62 = phi i1 [ false, %44 ], [ false, %40 ], [ %60, %53 ]
  br i1 %62, label %63, label %76

63:                                               ; preds = %61
  %64 = load ptr, ptr %3, align 8
  %65 = getelementptr inbounds nuw %struct.range_admin_tag, ptr %64, i32 0, i32 1
  %66 = load i32, ptr %65, align 4
  %67 = load ptr, ptr %4, align 8
  %68 = getelementptr inbounds nuw %struct.range_admin_tag, ptr %67, i32 0, i32 1
  store i32 %66, ptr %68, align 4
  %69 = load ptr, ptr %2, align 8
  %70 = getelementptr inbounds nuw %struct.epl_wmem_iarray, ptr %69, i32 0, i32 2
  %71 = load ptr, ptr %70, align 8
  %72 = load i32, ptr %5, align 4
  %73 = call ptr @g_array_remove_index(ptr noundef %71, i32 noundef %72)
  %74 = load i32, ptr %6, align 4
  %75 = add i32 %74, -1
  store i32 %75, ptr %6, align 4
  br label %40, !llvm.loop !13

76:                                               ; preds = %61
  %77 = load ptr, ptr %3, align 8
  store ptr %77, ptr %4, align 8
  br label %78

78:                                               ; preds = %76
  %79 = load i32, ptr %5, align 4
  %80 = add i32 %79, 1
  store i32 %80, ptr %5, align 4
  br label %28, !llvm.loop !14

81:                                               ; preds = %28
  %82 = load ptr, ptr %2, align 8
  %83 = getelementptr inbounds nuw %struct.epl_wmem_iarray, ptr %82, i32 0, i32 4
  %84 = load i8, ptr %83, align 4
  %85 = and i8 %84, -2
  %86 = or i8 %85, 1
  store i8 %86, ptr %83, align 4
  store i32 0, ptr %7, align 4
  br label %87

87:                                               ; preds = %81, %18
  call void @llvm.lifetime.end.p0(i64 4, ptr %6) #13
  call void @llvm.lifetime.end.p0(i64 4, ptr %5) #13
  call void @llvm.lifetime.end.p0(i64 8, ptr %4) #13
  call void @llvm.lifetime.end.p0(i64 8, ptr %3) #13
  %88 = load i32, ptr %7, align 4
  switch i32 %88, label %90 [
    i32 0, label %89
    i32 1, label %89
  ]

89:                                               ; preds = %87, %87
  ret void

90:                                               ; preds = %87
  unreachable
}