; Function Attrs: null_pointer_is_valid sspstrong uwtable
define internal fastcc void @epl_wmem_iarray_sort_and_compact(ptr noundef captures(none) %0) unnamed_addr #0 {
  %2 = getelementptr inbounds nuw i8, ptr %0, i64 16
  %3 = getelementptr inbounds nuw i8, ptr %0, i64 28
  %4 = load i8, ptr %3, align 4
  %5 = and i8 %4, 1
  %.not = icmp eq i8 %5, 0
  br i1 %.not, label %6, label %38

6:                                                ; preds = %1
  %7 = load ptr, ptr %2, align 8
  %8 = getelementptr inbounds nuw i8, ptr %7, i64 8
  %9 = load i32, ptr %8, align 8
  tail call void @g_array_sort(ptr noundef %7, ptr noundef nonnull @epl_wmem_iarray_cmp)
  %10 = icmp ugt i32 %9, 1
  br i1 %10, label %.lr.ph.preheader, label %._crit_edge

.lr.ph.preheader:                                 ; preds = %6
  %11 = load ptr, ptr %2, align 8
  %12 = load ptr, ptr %11, align 8
  br label %.lr.ph

.lr.ph:                                           ; preds = %.lr.ph.preheader, %.critedge
  %.029 = phi i32 [ %.1.lcssa, %.critedge ], [ %9, %.lr.ph.preheader ]
  %.02228 = phi i32 [ %34, %.critedge ], [ 1, %.lr.ph.preheader ]
  %.02327 = phi ptr [ %16, %.critedge ], [ %12, %.lr.ph.preheader ]
  %13 = load ptr, ptr %2, align 8
  %14 = tail call i32 @g_array_get_element_size(ptr noundef %13)
  %15 = zext i32 %14 to i64
  %16 = getelementptr i8, ptr %.02327, i64 %15
  %17 = getelementptr inbounds nuw i8, ptr %.02327, i64 4
  %18 = getelementptr inbounds nuw i8, ptr %16, i64 4
  %19 = add i32 %.029, -1
  %umin = tail call i32 @llvm.umin.i32(i32 %.02228, i32 %19)
  br label %20

20:                                               ; preds = %.lr.ph, %28
  %.126 = phi i32 [ %.029, %.lr.ph ], [ %32, %28 ]
  %21 = load i32, ptr %16, align 4
  %22 = load i32, ptr %17, align 4
  %23 = sub i32 %21, %22
  %24 = icmp ult i32 %23, 2
  br i1 %24, label %25, label %.critedge

25:                                               ; preds = %20
  %26 = load ptr, ptr %0, align 8
  %27 = tail call i32 %26(ptr noundef %16, ptr noundef %.02327)
  %.not25 = icmp eq i32 %27, 0
  br i1 %.not25, label %.critedge, label %28

28:                                               ; preds = %25
  %29 = load i32, ptr %18, align 4
  store i32 %29, ptr %17, align 4
  %30 = load ptr, ptr %2, align 8
  %31 = tail call ptr @g_array_remove_index(ptr noundef %30, i32 noundef %.02228)
  %32 = add i32 %.126, -1
  %33 = icmp ult i32 %.02228, %32
  br i1 %33, label %20, label %.critedge, !llvm.loop !13

.critedge:                                        ; preds = %20, %28, %25
  %.1.lcssa = phi i32 [ %.126, %20 ], [ %umin, %28 ], [ %.126, %25 ]
  %34 = add nuw i32 %.02228, 1
  %35 = icmp ult i32 %34, %.1.lcssa
  br i1 %35, label %.lr.ph, label %._crit_edge, !llvm.loop !14

._crit_edge:                                      ; preds = %.critedge, %6
  %36 = load i8, ptr %3, align 4
  %37 = or i8 %36, 1
  store i8 %37, ptr %3, align 4
  br label %38

38:                                               ; preds = %1, %._crit_edge
  ret void
}